Certificate:
    Data:
        Version: 3 (0x2)
        Serial Number: 1 (0x1)
        Signature Algorithm: sha256WithRSAEncryption
        Issuer: C=cn, ST=sichuan, L=chengdu, O=Internet Widgits Pty Ltd, CN=test.grpc.com
        Validity
            Not Before: Jan  5 03:15:43 2023 GMT
            Not After : Jan  5 03:15:43 2024 GMT
        Subject: C=cn, ST=sichuan, O=Internet Widgits Pty Ltd, CN=test.grpc.com
        Subject Public Key Info:
            Public Key Algorithm: rsaEncryption
                Public-Key: (2048 bit)
                Modulus:
                    00:a2:b9:8b:ff:e1:17:56:45:70:47:a4:d2:d1:24:
                    6f:1b:90:c3:98:53:52:7e:b5:39:a0:0f:ed:d5:22:
                    38:1e:95:c8:02:53:cc:bf:b4:37:59:70:d3:49:d9:
                    26:38:17:5a:b2:cb:26:32:e3:c3:55:b4:bb:1a:50:
                    11:f2:b4:ee:6c:90:8c:54:de:4b:f7:84:9f:da:04:
                    55:ab:4f:36:8f:96:d9:84:07:10:73:13:13:71:0b:
                    88:90:03:d3:57:5f:9c:33:2b:39:81:28:49:47:e0:
                    b6:63:79:c5:fb:87:a2:27:25:bb:17:5f:cc:cb:81:
                    48:f1:8a:5b:79:40:07:03:b0:f8:ba:bc:cf:3a:f3:
                    82:59:7c:41:92:fe:bc:f5:cd:a5:a9:b4:55:25:01:
                    83:73:ee:b6:b3:0e:93:b5:b7:d0:3b:65:76:0f:b4:
                    50:31:e7:db:bf:62:ea:74:a5:eb:78:42:b2:12:3e:
                    67:0a:5c:0a:48:79:07:18:86:c7:85:20:24:8f:2e:
                    e6:b1:4f:af:be:3f:ac:a5:1d:c0:60:19:fb:13:c9:
                    4b:49:fe:70:29:c7:6d:aa:8a:e8:61:ae:67:5a:a2:
                    e0:65:11:2a:23:63:72:d9:4a:15:d9:82:d1:92:5d:
                    6c:c6:bf:7a:1f:62:4a:63:5c:55:ae:2c:3a:a1:99:
                    00:ef
                Exponent: 65537 (0x10001)
        X509v3 extensions:
            X509v3 Subject Alternative Name: 
                DNS:test.grpc.com, IP Address:127.0.0.1
            X509v3 Subject Key Identifier: 
                5D:08:20:99:6F:70:E2:F9:65:57:73:EE:33:77:91:28:4B:8A:86:7D
            X509v3 Authority Key Identifier: 
                F1:75:63:E5:A3:87:97:FD:C2:9B:14:CB:45:72:5B:D8:A0:D0:8D:2E
    Signature Algorithm: sha256WithRSAEncryption
    Signature Value:
        65:19:ac:5f:03:9f:81:13:fc:d6:9c:27:be:36:f5:89:5b:6c:
        50:dc:a7:54:52:60:4c:70:17:22:d4:cf:1a:1e:e2:70:08:f7:
        c1:76:10:64:1f:8e:07:b3:2d:81:39:dd:9d:59:a0:1f:5e:4f:
        13:d3:74:85:50:e5:91:d9:23:dd:b7:da:56:07:16:dd:24:4b:
        92:a5:c4:be:0e:8b:c4:0d:16:16:37:93:a4:7d:d5:5c:48:25:
        ee:48:2c:39:c6:36:f6:35:a1:bf:5e:0e:18:68:9c:4b:88:36:
        7b:b0:71:21:d9:b3:ea:29:7c:ba:31:e8:c4:2c:54:ee:f5:8d:
        13:8b:11:24:d3:d1:b2:c8:86:e2:e5:d5:8f:0f:4f:9f:ba:28:
        69:3d:9f:c0:5b:f8:6a:97:73:cf:f1:2a:ad:69:87:87:3d:34:
        b9:13:54:b9:18:69:c4:e7:fb:73:c3:a1:f7:a9:58:d1:f2:f2:
        33:b1:ff:48:e7:e0:de:35:63:34:18:dd:46:96:3c:31:0a:d4:
        47:da:92:14:b5:1a:e5:34:08:20:1c:d2:1c:4a:13:b3:e8:0a:
        22:b1:45:a8:9c:eb:03:71:40:e6:c8:af:c9:75:e3:9a:46:ca:
        0a:43:2b:2e:2f:20:b3:e3:2b:87:ef:d5:5f:0e:a5:22:e7:0c:
        06:97:cf:48
-----BEGIN CERTIFICATE-----
MIIDozCCAougAwIBAgIBATANBgkqhkiG9w0BAQsFADBsMQswCQYDVQQGEwJjbjEQ
MA4GA1UECAwHc2ljaHVhbjEQMA4GA1UEBwwHY2hlbmdkdTEhMB8GA1UECgwYSW50
ZXJuZXQgV2lkZ2l0cyBQdHkgTHRkMRYwFAYDVQQDDA10ZXN0LmdycGMuY29tMB4X
DTIzMDEwNTAzMTU0M1oXDTI0MDEwNTAzMTU0M1owWjELMAkGA1UEBhMCY24xEDAO
BgNVBAgMB3NpY2h1YW4xITAfBgNVBAoMGEludGVybmV0IFdpZGdpdHMgUHR5IEx0
ZDEWMBQGA1UEAwwNdGVzdC5ncnBjLmNvbTCCASIwDQYJKoZIhvcNAQEBBQADggEP
ADCCAQoCggEBAKK5i//hF1ZFcEek0tEkbxuQw5hTUn61OaAP7dUiOB6VyAJTzL+0
N1lw00nZJjgXWrLLJjLjw1W0uxpQEfK07myQjFTeS/eEn9oEVatPNo+W2YQHEHMT
E3ELiJAD01dfnDMrOYEoSUfgtmN5xfuHoicluxdfzMuBSPGKW3lABwOw+Lq8zzrz
gll8QZL+vPXNpam0VSUBg3PutrMOk7W30Dtldg+0UDHn279i6nSl63hCshI+Zwpc
Ckh5BxiGx4UgJI8u5rFPr74/rKUdwGAZ+xPJS0n+cCnHbaqK6GGuZ1qi4GURKiNj
ctlKFdmC0ZJdbMa/eh9iSmNcVa4sOqGZAO8CAwEAAaNiMGAwHgYDVR0RBBcwFYIN
dGVzdC5ncnBjLmNvbYcEfwAAATAdBgNVHQ4EFgQUXQggmW9w4vllV3PuM3eRKEuK
hn0wHwYDVR0jBBgwFoAU8XVj5aOHl/3CmxTLRXJb2KDQjS4wDQYJKoZIhvcNAQEL
BQADggEBAGUZrF8Dn4ET/NacJ7429YlbbFDcp1RSYExwFyLUzxoe4nAI98F2EGQf
jgezLYE53Z1ZoB9eTxPTdIVQ5ZHZI9232lYHFt0kS5KlxL4Oi8QNFhY3k6R91VxI
Je5ILDnGNvY1ob9eDhhonEuINnuwcSHZs+opfLox6MQsVO71jROLESTT0bLIhuLl
1Y8PT5+6KGk9n8Bb+GqXc8/xKq1ph4c9NLkTVLkYacTn+3PDofepWNHy8jOx/0jn
4N41YzQY3UaWPDEK1EfakhS1GuU0CCAc0hxKE7PoCiKxRaic6wNxQObIr8l145pG
ygpDKy4vILPjK4fv1V8OpSLnDAaXz0g=
-----END CERTIFICATE-----
