Certificate:
    Data:
        Version: 3 (0x2)
        Serial Number: 2 (0x2)
        Signature Algorithm: sha256WithRSAEncryption
        Issuer: C=cn, ST=sichuan, L=chengdu, O=Internet Widgits Pty Ltd, CN=test.grpc.com
        Validity
            Not Before: Jan  5 03:17:42 2023 GMT
            Not After : Jan  5 03:17:42 2024 GMT
        Subject: C=cn, ST=sichuan, O=Internet Widgits Pty Ltd, CN=test.grpc.com
        Subject Public Key Info:
            Public Key Algorithm: rsaEncryption
                Public-Key: (2048 bit)
                Modulus:
                    00:8b:90:aa:6b:39:70:76:c9:8b:df:0c:30:7c:b9:
                    c5:fc:fa:67:8b:d2:61:02:d2:de:a5:dd:74:f1:dd:
                    77:d8:7a:80:62:1b:85:f3:bb:47:6f:c4:c5:9a:fa:
                    d7:8d:c4:f7:b9:ff:c8:01:35:12:24:1f:a7:03:f9:
                    45:67:18:48:cf:5c:01:e5:f6:1e:f0:e3:05:04:65:
                    27:6b:ef:5e:d6:f1:a5:6f:60:6b:b6:66:e7:31:38:
                    2e:7b:5d:31:7c:59:b0:19:ca:fd:88:c2:0c:99:bb:
                    42:8f:9d:bf:df:69:c8:45:22:57:f7:24:90:99:6d:
                    55:6d:5f:f6:5b:9a:e9:ba:93:9f:c1:5a:7a:9f:33:
                    3c:dc:c2:74:73:da:57:26:8d:34:d9:d6:8e:a9:e5:
                    76:3f:40:a7:26:38:83:45:71:e7:6f:07:15:a0:6e:
                    f6:7f:2c:2b:a4:d2:cf:b8:26:89:8e:41:5c:98:be:
                    e5:46:e5:b0:a7:c0:c5:2b:0e:d9:c7:23:74:f6:19:
                    77:f0:db:76:ed:8e:15:97:fd:f2:a2:da:28:19:cc:
                    ce:7e:ad:36:47:28:dc:19:0b:b6:fb:b4:35:af:f9:
                    1f:d3:be:16:2b:8e:09:20:74:de:ba:fb:fc:4c:a6:
                    b7:33:e3:ee:7e:d7:8b:ee:c9:02:5c:82:ba:74:16:
                    bd:35
                Exponent: 65537 (0x10001)
        X509v3 extensions:
            X509v3 Basic Constraints: 
                CA:FALSE
            X509v3 Subject Key Identifier: 
                D3:52:A5:31:9B:54:95:59:09:BF:EB:E4:7E:A0:D0:05:47:56:99:0E
            X509v3 Authority Key Identifier: 
                F1:75:63:E5:A3:87:97:FD:C2:9B:14:CB:45:72:5B:D8:A0:D0:8D:2E
    Signature Algorithm: sha256WithRSAEncryption
    Signature Value:
        32:b5:4c:0f:13:76:73:97:57:79:3d:4b:b0:f2:12:44:60:4c:
        5e:f0:56:5b:fd:d2:4b:6a:f8:73:20:fe:5b:c4:43:1b:53:19:
        04:38:9d:9c:94:2f:f5:ba:04:20:a6:3d:54:f0:4e:16:a3:6b:
        4d:45:4b:3f:d5:5f:6a:52:48:35:00:9f:bd:e2:e9:71:64:be:
        de:cd:8b:f5:cd:d8:bf:d9:4d:6b:2c:06:79:43:ec:c9:e0:34:
        8d:23:b6:a6:23:81:6f:f4:4c:cd:dd:7e:1e:98:fd:91:d3:72:
        f9:67:e5:ae:1e:83:fe:94:2d:44:23:95:fc:5b:74:45:18:d1:
        9a:be:18:c4:35:df:98:5c:1b:58:e6:04:66:1b:ef:f1:99:08:
        81:a3:71:39:a3:ec:85:32:5f:a7:3d:60:c7:cb:59:20:16:7e:
        20:ae:5d:9e:11:c5:a2:41:0c:4e:ec:1f:df:98:f6:18:d0:21:
        30:34:c9:e0:0d:9f:75:e3:09:03:b6:55:42:7e:8f:c0:bf:fe:
        63:32:c2:63:bf:82:da:b3:bc:e4:a8:d1:8f:a2:6a:e2:52:74:
        92:ae:d4:44:05:df:00:19:6f:54:58:56:c8:b9:b9:e6:a5:cb:
        60:7e:16:33:8d:39:d1:df:f5:a9:66:19:47:9a:da:1a:1b:4a:
        32:02:b9:8f
-----BEGIN CERTIFICATE-----
MIIDjjCCAnagAwIBAgIBAjANBgkqhkiG9w0BAQsFADBsMQswCQYDVQQGEwJjbjEQ
MA4GA1UECAwHc2ljaHVhbjEQMA4GA1UEBwwHY2hlbmdkdTEhMB8GA1UECgwYSW50
ZXJuZXQgV2lkZ2l0cyBQdHkgTHRkMRYwFAYDVQQDDA10ZXN0LmdycGMuY29tMB4X
DTIzMDEwNTAzMTc0MloXDTI0MDEwNTAzMTc0MlowWjELMAkGA1UEBhMCY24xEDAO
BgNVBAgMB3NpY2h1YW4xITAfBgNVBAoMGEludGVybmV0IFdpZGdpdHMgUHR5IEx0
ZDEWMBQGA1UEAwwNdGVzdC5ncnBjLmNvbTCCASIwDQYJKoZIhvcNAQEBBQADggEP
ADCCAQoCggEBAIuQqms5cHbJi98MMHy5xfz6Z4vSYQLS3qXddPHdd9h6gGIbhfO7
R2/ExZr6143E97n/yAE1EiQfpwP5RWcYSM9cAeX2HvDjBQRlJ2vvXtbxpW9ga7Zm
5zE4LntdMXxZsBnK/YjCDJm7Qo+dv99pyEUiV/ckkJltVW1f9lua6bqTn8Faep8z
PNzCdHPaVyaNNNnWjqnldj9ApyY4g0Vx528HFaBu9n8sK6TSz7gmiY5BXJi+5Ubl
sKfAxSsO2ccjdPYZd/Dbdu2OFZf98qLaKBnMzn6tNkco3BkLtvu0Na/5H9O+FiuO
CSB03rr7/EymtzPj7n7Xi+7JAlyCunQWvTUCAwEAAaNNMEswCQYDVR0TBAIwADAd
BgNVHQ4EFgQU01KlMZtUlVkJv+vkfqDQBUdWmQ4wHwYDVR0jBBgwFoAU8XVj5aOH
l/3CmxTLRXJb2KDQjS4wDQYJKoZIhvcNAQELBQADggEBADK1TA8TdnOXV3k9S7Dy
EkRgTF7wVlv90ktq+HMg/lvEQxtTGQQ4nZyUL/W6BCCmPVTwThaja01FSz/VX2pS
SDUAn73i6XFkvt7Ni/XN2L/ZTWssBnlD7MngNI0jtqYjgW/0TM3dfh6Y/ZHTcvln
5a4eg/6ULUQjlfxbdEUY0Zq+GMQ135hcG1jmBGYb7/GZCIGjcTmj7IUyX6c9YMfL
WSAWfiCuXZ4RxaJBDE7sH9+Y9hjQITA0yeANn3XjCQO2VUJ+j8C//mMywmO/gtqz
vOSo0Y+iauJSdJKu1EQF3wAZb1RYVsi5uealy2B+FjONOdHf9almGUea2hobSjIC
uY8=
-----END CERTIFICATE-----
